target datalayout = "e-m:e-p270:32:32-p271:32:32-p272:64:64-i64:64-i128:128-f80:128-n8:16:32:64-S128"
target triple = "x86_64-pc-linux-gnu"

@.str.111 = private unnamed_addr constant [8 x i8] c"default\00", align 1
@.str.112 = private unnamed_addr constant [5 x i8] c"text\00", align 1
@.str.113 = private unnamed_addr constant [5 x i8] c"wait\00", align 1
@.str.114 = private unnamed_addr constant [10 x i8] c"crosshair\00", align 1
@.str.115 = private unnamed_addr constant [9 x i8] c"progress\00", align 1
@.str.116 = private unnamed_addr constant [10 x i8] c"nw-resize\00", align 1
@.str.117 = private unnamed_addr constant [12 x i8] c"nwse-resize\00", align 1
@.str.118 = private unnamed_addr constant [10 x i8] c"ne-resize\00", align 1
@.str.119 = private unnamed_addr constant [12 x i8] c"nesw-resize\00", align 1
@.str.120 = private unnamed_addr constant [11 x i8] c"col-resize\00", align 1
@.str.121 = private unnamed_addr constant [10 x i8] c"ew-resize\00", align 1
@.str.122 = private unnamed_addr constant [11 x i8] c"row-resize\00", align 1
@.str.123 = private unnamed_addr constant [10 x i8] c"ns-resize\00", align 1
@.str.124 = private unnamed_addr constant [11 x i8] c"all-scroll\00", align 1
@.str.125 = private unnamed_addr constant [12 x i8] c"not-allowed\00", align 1
@.str.126 = private unnamed_addr constant [8 x i8] c"pointer\00", align 1
@.str.127 = private unnamed_addr constant [9 x i8] c"n-resize\00", align 1
@.str.128 = private unnamed_addr constant [9 x i8] c"e-resize\00", align 1
@.str.129 = private unnamed_addr constant [10 x i8] c"se-resize\00", align 1
@.str.130 = private unnamed_addr constant [9 x i8] c"s-resize\00", align 1
@.str.131 = private unnamed_addr constant [10 x i8] c"sw-resize\00", align 1
@.str.132 = private unnamed_addr constant [9 x i8] c"w-resize\00", align 1

; Function Attrs: nounwind uwtable
define hidden ptr @SDL_GetCSSCursorName(i32 noundef %0, ptr noundef %1) #0 {
  %3 = alloca ptr, align 8
  %4 = alloca i32, align 4
  %5 = alloca ptr, align 8
  store i32 %0, ptr %4, align 4
  store ptr %1, ptr %5, align 8
  %6 = load i32, ptr %4, align 4
  switch i32 %6, label %47 [
    i32 0, label %7
    i32 1, label %8
    i32 2, label %9
    i32 3, label %10
    i32 4, label %11
    i32 5, label %12
    i32 6, label %18
    i32 7, label %24
    i32 8, label %30
    i32 9, label %36
    i32 10, label %37
    i32 11, label %38
    i32 12, label %39
    i32 13, label %40
    i32 14, label %41
    i32 15, label %42
    i32 16, label %43
    i32 17, label %44
    i32 18, label %45
    i32 19, label %46
  ]

7:                                                ; preds = %2
  store ptr @.str.111, ptr %3, align 8
  br label %48

8:                                                ; preds = %2
  store ptr @.str.112, ptr %3, align 8
  br label %48

9:                                                ; preds = %2
  store ptr @.str.113, ptr %3, align 8
  br label %48

10:                                               ; preds = %2
  store ptr @.str.114, ptr %3, align 8
  br label %48

11:                                               ; preds = %2
  store ptr @.str.115, ptr %3, align 8
  br label %48

12:                                               ; preds = %2
  %13 = load ptr, ptr %5, align 8
  %14 = icmp ne ptr %13, null
  br i1 %14, label %15, label %17

15:                                               ; preds = %12
  %16 = load ptr, ptr %5, align 8
  store ptr @.str.116, ptr %16, align 8
  br label %17

17:                                               ; preds = %15, %12
  store ptr @.str.117, ptr %3, align 8
  br label %48

18:                                               ; preds = %2
  %19 = load ptr, ptr %5, align 8
  %20 = icmp ne ptr %19, null
  br i1 %20, label %21, label %23

21:                                               ; preds = %18
  %22 = load ptr, ptr %5, align 8
  store ptr @.str.118, ptr %22, align 8
  br label %23

23:                                               ; preds = %21, %18
  store ptr @.str.119, ptr %3, align 8
  br label %48

24:                                               ; preds = %2
  %25 = load ptr, ptr %5, align 8
  %26 = icmp ne ptr %25, null
  br i1 %26, label %27, label %29

27:                                               ; preds = %24
  %28 = load ptr, ptr %5, align 8
  store ptr @.str.120, ptr %28, align 8
  br label %29

29:                                               ; preds = %27, %24
  store ptr @.str.121, ptr %3, align 8
  br label %48

30:                                               ; preds = %2
  %31 = load ptr, ptr %5, align 8
  %32 = icmp ne ptr %31, null
  br i1 %32, label %33, label %35

33:                                               ; preds = %30
  %34 = load ptr, ptr %5, align 8
  store ptr @.str.122, ptr %34, align 8
  br label %35

35:                                               ; preds = %33, %30
  store ptr @.str.123, ptr %3, align 8
  br label %48

36:                                               ; preds = %2
  store ptr @.str.124, ptr %3, align 8
  br label %48

37:                                               ; preds = %2
  store ptr @.str.125, ptr %3, align 8
  br label %48

38:                                               ; preds = %2
  store ptr @.str.126, ptr %3, align 8
  br label %48

39:                                               ; preds = %2
  store ptr @.str.116, ptr %3, align 8
  br label %48

40:                                               ; preds = %2
  store ptr @.str.127, ptr %3, align 8
  br label %48

41:                                               ; preds = %2
  store ptr @.str.118, ptr %3, align 8
  br label %48

42:                                               ; preds = %2
  store ptr @.str.128, ptr %3, align 8
  br label %48

43:                                               ; preds = %2
  store ptr @.str.129, ptr %3, align 8
  br label %48

44:                                               ; preds = %2
  store ptr @.str.130, ptr %3, align 8
  br label %48

45:                                               ; preds = %2
  store ptr @.str.131, ptr %3, align 8
  br label %48

46:                                               ; preds = %2
  store ptr @.str.132, ptr %3, align 8
  br label %48

47:                                               ; preds = %2
  store ptr @.str.111, ptr %3, align 8
  br label %48

48:                                               ; preds = %47, %46, %45, %44, %43, %42, %41, %40, %39, %38, %37, %36, %35, %29, %23, %17, %11, %10, %9, %8, %7
  %49 = load ptr, ptr %3, align 8
  ret ptr %49
}