; Function Attrs: mustprogress nofree norecurse nosync nounwind willreturn memory(argmem: write) uwtable
define hidden noundef nonnull ptr @SDL_GetCSSCursorName(i32 noundef %0, ptr noundef writeonly captures(address_is_null) %1) local_unnamed_addr #13 {
  switch i32 %0, label %25 [
    i32 19, label %24
    i32 1, label %26
    i32 2, label %3
    i32 3, label %4
    i32 4, label %5
    i32 5, label %6
    i32 6, label %8
    i32 7, label %10
    i32 8, label %12
    i32 9, label %14
    i32 10, label %15
    i32 11, label %16
    i32 12, label %17
    i32 13, label %18
    i32 14, label %19
    i32 15, label %20
    i32 16, label %21
    i32 17, label %22
    i32 18, label %23
  ]

3:                                                ; preds = %2
  br label %26

4:                                                ; preds = %2
  br label %26

5:                                                ; preds = %2
  br label %26

6:                                                ; preds = %2
  %.not12 = icmp eq ptr %1, null
  br i1 %.not12, label %26, label %7

7:                                                ; preds = %6
  store ptr @.str.116, ptr %1, align 8
  br label %26

8:                                                ; preds = %2
  %.not11 = icmp eq ptr %1, null
  br i1 %.not11, label %26, label %9

9:                                                ; preds = %8
  store ptr @.str.118, ptr %1, align 8
  br label %26

10:                                               ; preds = %2
  %.not10 = icmp eq ptr %1, null
  br i1 %.not10, label %26, label %11

11:                                               ; preds = %10
  store ptr @.str.120, ptr %1, align 8
  br label %26

12:                                               ; preds = %2
  %.not = icmp eq ptr %1, null
  br i1 %.not, label %26, label %13

13:                                               ; preds = %12
  store ptr @.str.122, ptr %1, align 8
  br label %26

14:                                               ; preds = %2
  br label %26

15:                                               ; preds = %2
  br label %26

16:                                               ; preds = %2
  br label %26

17:                                               ; preds = %2
  br label %26

18:                                               ; preds = %2
  br label %26

19:                                               ; preds = %2
  br label %26

20:                                               ; preds = %2
  br label %26

21:                                               ; preds = %2
  br label %26

22:                                               ; preds = %2
  br label %26

23:                                               ; preds = %2
  br label %26

24:                                               ; preds = %2
  br label %26

25:                                               ; preds = %2
  br label %26

26:                                               ; preds = %12, %13, %10, %11, %8, %9, %6, %7, %2, %25, %24, %23, %22, %21, %20, %19, %18, %17, %16, %15, %14, %5, %4, %3
  %.0 = phi ptr [ @.str.111, %25 ], [ @.str.132, %24 ], [ @.str.131, %23 ], [ @.str.130, %22 ], [ @.str.129, %21 ], [ @.str.128, %20 ], [ @.str.118, %19 ], [ @.str.127, %18 ], [ @.str.116, %17 ], [ @.str.126, %16 ], [ @.str.125, %15 ], [ @.str.124, %14 ], [ @.str.115, %5 ], [ @.str.114, %4 ], [ @.str.113, %3 ], [ @.str.112, %2 ], [ @.str.117, %7 ], [ @.str.117, %6 ], [ @.str.119, %9 ], [ @.str.119, %8 ], [ @.str.121, %11 ], [ @.str.121, %10 ], [ @.str.123, %13 ], [ @.str.123, %12 ]
  ret ptr %.0
}